; Function Attrs: uwtable
define noundef ptr @_ZN11OpenImageIO6v3_1_06Plugin4openEPKcb(ptr noundef %0, i1 noundef zeroext %1) local_unnamed_addr #6 personality ptr @__gxx_personality_v0 {
  %3 = tail call noundef i32 @pthread_mutex_lock(ptr noundef nonnull align 8 dereferenceable(40) @_ZN11OpenImageIO6v3_1_012_GLOBAL__N_112plugin_mutexE) #4
  %.not.i.i = icmp eq i32 %3, 0
  br i1 %.not.i.i, label %_ZNSt10lock_guardISt5mutexEC2ERS0_.exit, label %4

4:                                                ; preds = %2
  tail call void @_ZSt20__throw_system_errori(i32 noundef %3) #13
  unreachable

_ZNSt10lock_guardISt5mutexEC2ERS0_.exit:          ; preds = %2
  %5 = load i8, ptr @__tls_guard, align 1
  %6 = icmp eq i8 %5, 0
  br i1 %6, label %7, label %_ZTWN11OpenImageIO6v3_1_012_GLOBAL__N_110last_errorB5cxx11E.exit, !prof !3

7:                                                ; preds = %_ZNSt10lock_guardISt5mutexEC2ERS0_.exit
  store i8 1, ptr @__tls_guard, align 1
  %8 = tail call ptr @llvm.invariant.start.p0(i64 1, ptr nonnull @__tls_guard)
  store ptr getelementptr inbounds nuw (i8, ptr @_ZN11OpenImageIO6v3_1_012_GLOBAL__N_110last_errorB5cxx11E, i64 16), ptr @_ZN11OpenImageIO6v3_1_012_GLOBAL__N_110last_errorB5cxx11E, align 8, !tbaa !4
  store i64 0, ptr getelementptr inbounds nuw (i8, ptr @_ZN11OpenImageIO6v3_1_012_GLOBAL__N_110last_errorB5cxx11E, i64 8), align 8, !tbaa !10
  store i8 0, ptr getelementptr inbounds nuw (i8, ptr @_ZN11OpenImageIO6v3_1_012_GLOBAL__N_110last_errorB5cxx11E, i64 16), align 8, !tbaa !13
  %9 = tail call i32 @__cxa_thread_atexit(ptr nonnull @_ZNSt7__cxx1112basic_stringIcSt11char_traitsIcESaIcEED2Ev, ptr nonnull @_ZN11OpenImageIO6v3_1_012_GLOBAL__N_110last_errorB5cxx11E, ptr nonnull @__dso_handle) #4
  br label %_ZTWN11OpenImageIO6v3_1_012_GLOBAL__N_110last_errorB5cxx11E.exit

_ZTWN11OpenImageIO6v3_1_012_GLOBAL__N_110last_errorB5cxx11E.exit: ; preds = %_ZNSt10lock_guardISt5mutexEC2ERS0_.exit, %7
  %10 = tail call noundef nonnull align 8 ptr @llvm.threadlocal.address.p0(ptr align 8 @_ZN11OpenImageIO6v3_1_012_GLOBAL__N_110last_errorB5cxx11E)
  %11 = getelementptr inbounds nuw i8, ptr %10, i64 8
  store i64 0, ptr %11, align 8, !tbaa !10
  %12 = load ptr, ptr %10, align 8, !tbaa !14
  store i8 0, ptr %12, align 1, !tbaa !13
  %spec.select = select i1 %1, i32 257, i32 1
  %13 = tail call ptr @dlopen(ptr noundef %0, i32 noundef %spec.select) #4
  %.not = icmp eq ptr %13, null
  br i1 %.not, label %14, label %_ZNSt7__cxx1112basic_stringIcSt11char_traitsIcESaIcEEaSEPKc.exit

14:                                               ; preds = %_ZTWN11OpenImageIO6v3_1_012_GLOBAL__N_110last_errorB5cxx11E.exit
  %15 = tail call ptr @dlerror() #4
  %16 = load i8, ptr @__tls_guard, align 1
  %17 = icmp eq i8 %16, 0
  br i1 %17, label %18, label %_ZTWN11OpenImageIO6v3_1_012_GLOBAL__N_110last_errorB5cxx11E.exit7, !prof !3

18:                                               ; preds = %14
  store i8 1, ptr @__tls_guard, align 1
  %19 = tail call ptr @llvm.invariant.start.p0(i64 1, ptr nonnull @__tls_guard)
  store ptr getelementptr inbounds nuw (i8, ptr @_ZN11OpenImageIO6v3_1_012_GLOBAL__N_110last_errorB5cxx11E, i64 16), ptr @_ZN11OpenImageIO6v3_1_012_GLOBAL__N_110last_errorB5cxx11E, align 8, !tbaa !4
  store i64 0, ptr getelementptr inbounds nuw (i8, ptr @_ZN11OpenImageIO6v3_1_012_GLOBAL__N_110last_errorB5cxx11E, i64 8), align 8, !tbaa !10
  store i8 0, ptr getelementptr inbounds nuw (i8, ptr @_ZN11OpenImageIO6v3_1_012_GLOBAL__N_110last_errorB5cxx11E, i64 16), align 8, !tbaa !13
  %20 = tail call i32 @__cxa_thread_atexit(ptr nonnull @_ZNSt7__cxx1112basic_stringIcSt11char_traitsIcESaIcEED2Ev, ptr nonnull @_ZN11OpenImageIO6v3_1_012_GLOBAL__N_110last_errorB5cxx11E, ptr nonnull @__dso_handle) #4
  br label %_ZTWN11OpenImageIO6v3_1_012_GLOBAL__N_110last_errorB5cxx11E.exit7

_ZTWN11OpenImageIO6v3_1_012_GLOBAL__N_110last_errorB5cxx11E.exit7: ; preds = %14, %18
  %21 = load i64, ptr %11, align 8, !tbaa !10
  %22 = tail call noundef i64 @strlen(ptr noundef nonnull dereferenceable(1) %15) #4
  %23 = invoke noundef nonnull align 8 dereferenceable(32) ptr @_ZNSt7__cxx1112basic_stringIcSt11char_traitsIcESaIcEE10_M_replaceEmmPKcm(ptr noundef nonnull align 8 dereferenceable(32) %10, i64 noundef 0, i64 noundef %21, ptr noundef nonnull %15, i64 noundef %22)
          to label %_ZNSt7__cxx1112basic_stringIcSt11char_traitsIcESaIcEEaSEPKc.exit unwind label %24

24:                                               ; preds = %_ZTWN11OpenImageIO6v3_1_012_GLOBAL__N_110last_errorB5cxx11E.exit7
  %25 = landingpad { ptr, i32 }
          cleanup
  %26 = tail call noundef i32 @pthread_mutex_unlock(ptr noundef nonnull align 8 dereferenceable(40) @_ZN11OpenImageIO6v3_1_012_GLOBAL__N_112plugin_mutexE) #4
  resume { ptr, i32 } %25

_ZNSt7__cxx1112basic_stringIcSt11char_traitsIcESaIcEEaSEPKc.exit: ; preds = %_ZTWN11OpenImageIO6v3_1_012_GLOBAL__N_110last_errorB5cxx11E.exit7, %_ZTWN11OpenImageIO6v3_1_012_GLOBAL__N_110last_errorB5cxx11E.exit
  %27 = tail call noundef i32 @pthread_mutex_unlock(ptr noundef nonnull align 8 dereferenceable(40) @_ZN11OpenImageIO6v3_1_012_GLOBAL__N_112plugin_mutexE) #4
  ret ptr %13
}